target datalayout = "e-m:e-p270:32:32-p271:32:32-p272:64:64-i64:64-i128:128-f80:128-n8:16:32:64-S128"
target triple = "x86_64-pc-linux-gnu"

%"class.icu_77::MessagePattern::Part" = type { i32, i32, i16, i16, i32 }

; Function Attrs: mustprogress nounwind uwtable
define noundef zeroext i1 @_ZNK6icu_7714MessagePattern4ParteqERKS1_(ptr noundef nonnull align 4 dereferenceable(16) %0, ptr noundef nonnull align 4 dereferenceable(16) %1) #5 align 2 {
  %3 = alloca i1, align 1
  %4 = alloca ptr, align 8
  %5 = alloca ptr, align 8
  store ptr %0, ptr %4, align 8, !tbaa !70
  store ptr %1, ptr %5, align 8, !tbaa !70
  %6 = load ptr, ptr %4, align 8
  %7 = load ptr, ptr %5, align 8, !tbaa !70
  %8 = icmp eq ptr %6, %7
  br i1 %8, label %9, label %10

9:                                                ; preds = %2
  store i1 true, ptr %3, align 1
  br label %51

10:                                               ; preds = %2
  %11 = getelementptr inbounds nuw %"class.icu_77::MessagePattern::Part", ptr %6, i32 0, i32 0
  %12 = load i32, ptr %11, align 4, !tbaa !71
  %13 = load ptr, ptr %5, align 8, !tbaa !70
  %14 = getelementptr inbounds nuw %"class.icu_77::MessagePattern::Part", ptr %13, i32 0, i32 0
  %15 = load i32, ptr %14, align 4, !tbaa !71
  %16 = icmp eq i32 %12, %15
  br i1 %16, label %17, label %49

17:                                               ; preds = %10
  %18 = getelementptr inbounds nuw %"class.icu_77::MessagePattern::Part", ptr %6, i32 0, i32 1
  %19 = load i32, ptr %18, align 4, !tbaa !75
  %20 = load ptr, ptr %5, align 8, !tbaa !70
  %21 = getelementptr inbounds nuw %"class.icu_77::MessagePattern::Part", ptr %20, i32 0, i32 1
  %22 = load i32, ptr %21, align 4, !tbaa !75
  %23 = icmp eq i32 %19, %22
  br i1 %23, label %24, label %49

24:                                               ; preds = %17
  %25 = getelementptr inbounds nuw %"class.icu_77::MessagePattern::Part", ptr %6, i32 0, i32 2
  %26 = load i16, ptr %25, align 4, !tbaa !76
  %27 = zext i16 %26 to i32
  %28 = load ptr, ptr %5, align 8, !tbaa !70
  %29 = getelementptr inbounds nuw %"class.icu_77::MessagePattern::Part", ptr %28, i32 0, i32 2
  %30 = load i16, ptr %29, align 4, !tbaa !76
  %31 = zext i16 %30 to i32
  %32 = icmp eq i32 %27, %31
  br i1 %32, label %33, label %49

33:                                               ; preds = %24
  %34 = getelementptr inbounds nuw %"class.icu_77::MessagePattern::Part", ptr %6, i32 0, i32 3
  %35 = load i16, ptr %34, align 2, !tbaa !77
  %36 = sext i16 %35 to i32
  %37 = load ptr, ptr %5, align 8, !tbaa !70
  %38 = getelementptr inbounds nuw %"class.icu_77::MessagePattern::Part", ptr %37, i32 0, i32 3
  %39 = load i16, ptr %38, align 2, !tbaa !77
  %40 = sext i16 %39 to i32
  %41 = icmp eq i32 %36, %40
  br i1 %41, label %42, label %49

42:                                               ; preds = %33
  %43 = getelementptr inbounds nuw %"class.icu_77::MessagePattern::Part", ptr %6, i32 0, i32 4
  %44 = load i32, ptr %43, align 4, !tbaa !83
  %45 = load ptr, ptr %5, align 8, !tbaa !70
  %46 = getelementptr inbounds nuw %"class.icu_77::MessagePattern::Part", ptr %45, i32 0, i32 4
  %47 = load i32, ptr %46, align 4, !tbaa !83
  %48 = icmp eq i32 %44, %47
  br label %49

49:                                               ; preds = %42, %33, %24, %17, %10
  %50 = phi i1 [ false, %33 ], [ false, %24 ], [ false, %17 ], [ false, %10 ], [ %48, %42 ]
  store i1 %50, ptr %3, align 1
  br label %51

51:                                               ; preds = %49, %9
  %52 = load i1, ptr %3, align 1
  ret i1 %52
}