; Function Attrs: mustprogress nofree norecurse nosync nounwind willreturn memory(argmem: read) uwtable
define noundef zeroext i1 @_ZNK6icu_7714MessagePattern4ParteqERKS1_(ptr noundef nonnull readonly align 4 dereferenceable(16) %0, ptr noundef nonnull readonly align 4 dereferenceable(16) %1) local_unnamed_addr #9 align 2 {
  %3 = icmp eq ptr %0, %1
  br i1 %3, label %32, label %4

4:                                                ; preds = %2
  %5 = load i32, ptr %0, align 4, !tbaa !44
  %6 = load i32, ptr %1, align 4, !tbaa !44
  %7 = icmp eq i32 %5, %6
  br i1 %7, label %8, label %32

8:                                                ; preds = %4
  %9 = getelementptr inbounds nuw i8, ptr %0, i64 4
  %10 = load i32, ptr %9, align 4, !tbaa !48
  %11 = getelementptr inbounds nuw i8, ptr %1, i64 4
  %12 = load i32, ptr %11, align 4, !tbaa !48
  %13 = icmp eq i32 %10, %12
  br i1 %13, label %14, label %32

14:                                               ; preds = %8
  %15 = getelementptr inbounds nuw i8, ptr %0, i64 8
  %16 = load i16, ptr %15, align 4, !tbaa !49
  %17 = getelementptr inbounds nuw i8, ptr %1, i64 8
  %18 = load i16, ptr %17, align 4, !tbaa !49
  %19 = icmp eq i16 %16, %18
  br i1 %19, label %20, label %32

20:                                               ; preds = %14
  %21 = getelementptr inbounds nuw i8, ptr %0, i64 10
  %22 = load i16, ptr %21, align 2, !tbaa !50
  %23 = getelementptr inbounds nuw i8, ptr %1, i64 10
  %24 = load i16, ptr %23, align 2, !tbaa !50
  %25 = icmp eq i16 %22, %24
  br i1 %25, label %26, label %32

26:                                               ; preds = %20
  %27 = getelementptr inbounds nuw i8, ptr %0, i64 12
  %28 = load i32, ptr %27, align 4, !tbaa !51
  %29 = getelementptr inbounds nuw i8, ptr %1, i64 12
  %30 = load i32, ptr %29, align 4, !tbaa !51
  %31 = icmp eq i32 %28, %30
  br label %32

32:                                               ; preds = %4, %8, %14, %20, %26, %2
  %.0 = phi i1 [ true, %2 ], [ false, %20 ], [ false, %14 ], [ false, %8 ], [ false, %4 ], [ %31, %26 ]
  ret i1 %.0
}